target datalayout = "e-m:e-p270:32:32-p271:32:32-p272:64:64-i64:64-i128:128-f80:128-n8:16:32:64-S128"
target triple = "x86_64-pc-linux-gnu"

@PyExc_RuntimeError = external global ptr, align 8
@PyExc_ValueError = external global ptr, align 8
@.str.147 = private unnamed_addr constant [26 x i8] c"unsupported error handler\00", align 1
@.str.148 = private unnamed_addr constant [19 x i8] c"unknown error code\00", align 1
@.str.149 = private unnamed_addr constant [5 x i8] c"y|is\00", align 1
@.str.150 = private unnamed_addr constant [33 x i8] c"decode error: pos=%zu, reason=%s\00", align 1

; Function Attrs: nounwind uwtable
define internal ptr @decode_locale_ex(ptr noundef %0, ptr noundef %1) #0 {
  %3 = alloca ptr, align 8
  %4 = alloca ptr, align 8
  %5 = alloca ptr, align 8
  %6 = alloca ptr, align 8
  %7 = alloca i32, align 4
  %8 = alloca ptr, align 8
  %9 = alloca ptr, align 8
  %10 = alloca i32, align 4
  %11 = alloca i32, align 4
  %12 = alloca ptr, align 8
  %13 = alloca i64, align 8
  %14 = alloca ptr, align 8
  %15 = alloca i32, align 4
  store ptr %0, ptr %4, align 8, !tbaa !3
  store ptr %1, ptr %5, align 8, !tbaa !3
  call void @llvm.lifetime.start.p0(i64 8, ptr %6) #10
  call void @llvm.lifetime.start.p0(i64 4, ptr %7) #10
  store i32 0, ptr %7, align 4, !tbaa !26
  call void @llvm.lifetime.start.p0(i64 8, ptr %8) #10
  store ptr null, ptr %8, align 8, !tbaa !3
  call void @llvm.lifetime.start.p0(i64 8, ptr %9) #10
  store ptr null, ptr %9, align 8, !tbaa !46
  %16 = load ptr, ptr %5, align 8, !tbaa !3
  %17 = call i32 (ptr, ptr, ...) @PyArg_ParseTuple(ptr noundef %16, ptr noundef @.str.149, ptr noundef %6, ptr noundef %7, ptr noundef %9)
  %18 = icmp ne i32 %17, 0
  br i1 %18, label %20, label %19

19:                                               ; preds = %2
  store ptr null, ptr %3, align 8
  store i32 1, ptr %10, align 4
  br label %46

20:                                               ; preds = %2
  call void @llvm.lifetime.start.p0(i64 4, ptr %11) #10
  %21 = load ptr, ptr %9, align 8, !tbaa !46
  %22 = call i32 @_Py_GetErrorHandler(ptr noundef %21)
  store i32 %22, ptr %11, align 4, !tbaa !26
  call void @llvm.lifetime.start.p0(i64 8, ptr %12) #10
  store ptr null, ptr %12, align 8, !tbaa !44
  call void @llvm.lifetime.start.p0(i64 8, ptr %13) #10
  store i64 0, ptr %13, align 8, !tbaa !27
  call void @llvm.lifetime.start.p0(i64 8, ptr %14) #10
  store ptr null, ptr %14, align 8, !tbaa !46
  call void @llvm.lifetime.start.p0(i64 4, ptr %15) #10
  %23 = load ptr, ptr %6, align 8, !tbaa !46
  %24 = load i32, ptr %7, align 4, !tbaa !26
  %25 = load i32, ptr %11, align 4, !tbaa !26
  %26 = call i32 @_Py_DecodeLocaleEx(ptr noundef %23, ptr noundef %12, ptr noundef %13, ptr noundef %14, i32 noundef %24, i32 noundef %25)
  store i32 %26, ptr %15, align 4, !tbaa !26
  %27 = load i32, ptr %15, align 4, !tbaa !26
  switch i32 %27, label %42 [
    i32 0, label %28
    i32 -1, label %33
    i32 -2, label %35
    i32 -3, label %40
  ]

28:                                               ; preds = %20
  %29 = load ptr, ptr %12, align 8, !tbaa !44
  %30 = load i64, ptr %13, align 8, !tbaa !27
  %31 = call ptr @PyUnicode_FromWideChar(ptr noundef %29, i64 noundef %30)
  store ptr %31, ptr %8, align 8, !tbaa !3
  %32 = load ptr, ptr %12, align 8, !tbaa !44
  call void @PyMem_RawFree(ptr noundef %32)
  br label %44

33:                                               ; preds = %20
  %34 = call ptr @PyErr_NoMemory()
  br label %44

35:                                               ; preds = %20
  %36 = load ptr, ptr @PyExc_RuntimeError, align 8, !tbaa !3
  %37 = load i64, ptr %13, align 8, !tbaa !27
  %38 = load ptr, ptr %14, align 8, !tbaa !46
  %39 = call ptr (ptr, ptr, ...) @PyErr_Format(ptr noundef %36, ptr noundef @.str.150, i64 noundef %37, ptr noundef %38)
  br label %44

40:                                               ; preds = %20
  %41 = load ptr, ptr @PyExc_ValueError, align 8, !tbaa !3
  call void @PyErr_SetString(ptr noundef %41, ptr noundef @.str.147)
  br label %44

42:                                               ; preds = %20
  %43 = load ptr, ptr @PyExc_ValueError, align 8, !tbaa !3
  call void @PyErr_SetString(ptr noundef %43, ptr noundef @.str.148)
  br label %44

44:                                               ; preds = %42, %40, %35, %33, %28
  %45 = load ptr, ptr %8, align 8, !tbaa !3
  store ptr %45, ptr %3, align 8
  store i32 1, ptr %10, align 4
  call void @llvm.lifetime.end.p0(i64 4, ptr %15) #10
  call void @llvm.lifetime.end.p0(i64 8, ptr %14) #10
  call void @llvm.lifetime.end.p0(i64 8, ptr %13) #10
  call void @llvm.lifetime.end.p0(i64 8, ptr %12) #10
  call void @llvm.lifetime.end.p0(i64 4, ptr %11) #10
  br label %46

46:                                               ; preds = %44, %19
  call void @llvm.lifetime.end.p0(i64 8, ptr %9) #10
  call void @llvm.lifetime.end.p0(i64 8, ptr %8) #10
  call void @llvm.lifetime.end.p0(i64 4, ptr %7) #10
  call void @llvm.lifetime.end.p0(i64 8, ptr %6) #10
  %47 = load ptr, ptr %3, align 8
  ret ptr %47
}