; Function Attrs: nounwind uwtable
define internal ptr @decode_locale_ex(ptr readnone captures(none) %0, ptr noundef %1) #0 {
  %3 = alloca ptr, align 8
  %4 = alloca i32, align 4
  %5 = alloca ptr, align 8
  %6 = alloca ptr, align 8
  %7 = alloca i64, align 8
  %8 = alloca ptr, align 8
  call void @llvm.lifetime.start.p0(i64 8, ptr nonnull %3) #11
  call void @llvm.lifetime.start.p0(i64 4, ptr nonnull %4) #11
  store i32 0, ptr %4, align 4, !tbaa !25
  call void @llvm.lifetime.start.p0(i64 8, ptr nonnull %5) #11
  store ptr null, ptr %5, align 8, !tbaa !41
  %9 = call i32 (ptr, ptr, ...) @PyArg_ParseTuple(ptr noundef %1, ptr noundef nonnull @.str.149, ptr noundef nonnull %3, ptr noundef nonnull %4, ptr noundef nonnull %5) #11
  %.not = icmp eq i32 %9, 0
  br i1 %.not, label %33, label %10

10:                                               ; preds = %2
  %11 = load ptr, ptr %5, align 8, !tbaa !41
  %12 = call i32 @_Py_GetErrorHandler(ptr noundef %11) #11
  call void @llvm.lifetime.start.p0(i64 8, ptr nonnull %6) #11
  store ptr null, ptr %6, align 8, !tbaa !43
  call void @llvm.lifetime.start.p0(i64 8, ptr nonnull %7) #11
  store i64 0, ptr %7, align 8, !tbaa !26
  call void @llvm.lifetime.start.p0(i64 8, ptr nonnull %8) #11
  store ptr null, ptr %8, align 8, !tbaa !41
  %13 = load ptr, ptr %3, align 8, !tbaa !41
  %14 = load i32, ptr %4, align 4, !tbaa !25
  %15 = call i32 @_Py_DecodeLocaleEx(ptr noundef %13, ptr noundef nonnull %6, ptr noundef nonnull %7, ptr noundef nonnull %8, i32 noundef %14, i32 noundef %12) #11
  switch i32 %15, label %30 [
    i32 0, label %16
    i32 -1, label %21
    i32 -2, label %23
    i32 -3, label %28
  ]

16:                                               ; preds = %10
  %17 = load ptr, ptr %6, align 8, !tbaa !43
  %18 = load i64, ptr %7, align 8, !tbaa !26
  %19 = call ptr @PyUnicode_FromWideChar(ptr noundef %17, i64 noundef %18) #11
  %20 = load ptr, ptr %6, align 8, !tbaa !43
  call void @PyMem_RawFree(ptr noundef %20) #11
  br label %32

21:                                               ; preds = %10
  %22 = call ptr @PyErr_NoMemory() #11
  br label %32

23:                                               ; preds = %10
  %24 = load ptr, ptr @PyExc_RuntimeError, align 8, !tbaa !9
  %25 = load i64, ptr %7, align 8, !tbaa !26
  %26 = load ptr, ptr %8, align 8, !tbaa !41
  %27 = call ptr (ptr, ptr, ...) @PyErr_Format(ptr noundef %24, ptr noundef nonnull @.str.150, i64 noundef %25, ptr noundef %26) #11
  br label %32

28:                                               ; preds = %10
  %29 = load ptr, ptr @PyExc_ValueError, align 8, !tbaa !9
  call void @PyErr_SetString(ptr noundef %29, ptr noundef nonnull @.str.147) #11
  br label %32

30:                                               ; preds = %10
  %31 = load ptr, ptr @PyExc_ValueError, align 8, !tbaa !9
  call void @PyErr_SetString(ptr noundef %31, ptr noundef nonnull @.str.148) #11
  br label %32

32:                                               ; preds = %30, %28, %23, %21, %16
  %.04 = phi ptr [ null, %30 ], [ null, %28 ], [ null, %23 ], [ null, %21 ], [ %19, %16 ]
  call void @llvm.lifetime.end.p0(i64 8, ptr nonnull %8) #11
  call void @llvm.lifetime.end.p0(i64 8, ptr nonnull %7) #11
  call void @llvm.lifetime.end.p0(i64 8, ptr nonnull %6) #11
  br label %33

33:                                               ; preds = %2, %32
  %.0 = phi ptr [ %.04, %32 ], [ null, %2 ]
  call void @llvm.lifetime.end.p0(i64 8, ptr nonnull %5) #11
  call void @llvm.lifetime.end.p0(i64 4, ptr nonnull %4) #11
  call void @llvm.lifetime.end.p0(i64 8, ptr nonnull %3) #11
  ret ptr %.0
}